target datalayout = "e-m:e-p270:32:32-p271:32:32-p272:64:64-i64:64-i128:128-f80:128-n8:16:32:64-S128"
target triple = "x86_64-pc-linux-gnu"

%struct._scdf_ctx = type { ptr, ptr, ptr, ptr, ptr, ptr, ptr, i32, i32, i32, %struct.anon }
%struct.anon = type { ptr, ptr, ptr }
%struct._zend_ssa = type { %struct._zend_cfg, i32, i32, ptr, ptr, ptr, ptr }
%struct._zend_cfg = type { i32, i32, ptr, ptr, ptr, i32 }
%struct._zend_ssa_var = type { i32, i32, i32, i32, ptr, ptr, ptr, i8 }
%struct._zend_ssa_op = type { i32, i32, i32, i32, i32, i32, i32, i32, i32 }
%struct._zend_ssa_range = type { i64, i64, i8, i8 }
%struct._zend_ssa_phi = type { ptr, i32, %union._zend_ssa_pi_constraint, i32, i32, i32, i8, ptr, ptr, ptr }
%union._zend_ssa_pi_constraint = type { %struct._zend_ssa_range_constraint }
%struct._zend_ssa_range_constraint = type { %struct._zend_ssa_range, i32, i32, i32, i32, i32 }
%struct._zend_basic_block = type { ptr, i32, i32, i32, i32, i32, i32, i32, i32, i32, i32, i32, [2 x i32] }

; Function Attrs: nounwind uwtable
define internal void @zend_bitset_incl(ptr noundef %0, i32 noundef %1) #0 {
  %3 = alloca ptr, align 8
  %4 = alloca i32, align 4
  store ptr %0, ptr %3, align 8
  store i32 %1, ptr %4, align 4
  %5 = load i32, ptr %4, align 4
  %6 = zext i32 %5 to i64
  %7 = and i64 %6, 63
  %8 = shl i64 1, %7
  %9 = load ptr, ptr %3, align 8
  %10 = load i32, ptr %4, align 4
  %11 = lshr i32 %10, 6
  %12 = zext i32 %11 to i64
  %13 = getelementptr inbounds i64, ptr %9, i64 %12
  %14 = load i64, ptr %13, align 8
  %15 = or i64 %14, %8
  store i64 %15, ptr %13, align 8
  ret void
}

; Function Attrs: nounwind uwtable
define internal void @scdf_add_to_worklist(ptr noundef %0, i32 noundef %1) #0 {
  %3 = alloca ptr, align 8
  %4 = alloca ptr, align 8
  %5 = alloca i32, align 4
  %6 = alloca ptr, align 8
  %7 = alloca i32, align 4
  %8 = alloca i32, align 4
  %9 = alloca ptr, align 8
  %10 = alloca i32, align 4
  %11 = alloca i32, align 4
  %12 = alloca ptr, align 8
  %13 = alloca i32, align 4
  %14 = alloca ptr, align 8
  %15 = alloca ptr, align 8
  %16 = alloca i32, align 4
  %17 = alloca ptr, align 8
  %18 = alloca i32, align 4
  %19 = alloca i32, align 4
  %20 = alloca i32, align 4
  %21 = alloca ptr, align 8
  store ptr %0, ptr %12, align 8
  store i32 %1, ptr %13, align 4
  %22 = load ptr, ptr %12, align 8
  %23 = getelementptr inbounds %struct._scdf_ctx, ptr %22, i32 0, i32 1
  %24 = load ptr, ptr %23, align 8
  store ptr %24, ptr %14, align 8
  %25 = load ptr, ptr %14, align 8
  %26 = getelementptr inbounds %struct._zend_ssa, ptr %25, i32 0, i32 5
  %27 = load ptr, ptr %26, align 8
  %28 = load i32, ptr %13, align 4
  %29 = sext i32 %28 to i64
  %30 = getelementptr inbounds %struct._zend_ssa_var, ptr %27, i64 %29
  store ptr %30, ptr %15, align 8
  br label %31

31:                                               ; preds = %2
  %32 = load ptr, ptr %15, align 8
  %33 = load ptr, ptr %14, align 8
  %34 = getelementptr inbounds %struct._zend_ssa, ptr %33, i32 0, i32 5
  %35 = load ptr, ptr %34, align 8
  %36 = ptrtoint ptr %32 to i64
  %37 = ptrtoint ptr %35 to i64
  %38 = sub i64 %36, %37
  %39 = sdiv exact i64 %38, 48
  %40 = trunc i64 %39 to i32
  store i32 %40, ptr %18, align 4
  %41 = load ptr, ptr %15, align 8
  %42 = getelementptr inbounds %struct._zend_ssa_var, ptr %41, i32 0, i32 3
  %43 = load i32, ptr %42, align 4
  store i32 %43, ptr %16, align 4
  br label %44

44:                                               ; preds = %85, %31
  %45 = load i32, ptr %16, align 4
  %46 = icmp sge i32 %45, 0
  br i1 %46, label %47, label %87

47:                                               ; preds = %44
  %48 = load ptr, ptr %14, align 8
  %49 = getelementptr inbounds %struct._zend_ssa, ptr %48, i32 0, i32 4
  %50 = load ptr, ptr %49, align 8
  %51 = load i32, ptr %18, align 4
  %52 = load i32, ptr %16, align 4
  store ptr %50, ptr %9, align 8
  store i32 %51, ptr %10, align 4
  store i32 %52, ptr %11, align 4
  %53 = load i32, ptr %11, align 4
  %54 = load ptr, ptr %9, align 8
  %55 = sext i32 %53 to i64
  %56 = getelementptr inbounds %struct._zend_ssa_op, ptr %54, i64 %55
  store ptr %56, ptr %9, align 8
  %57 = load ptr, ptr %9, align 8
  %58 = load i32, ptr %57, align 4
  %59 = load i32, ptr %10, align 4
  %60 = icmp eq i32 %58, %59
  br i1 %60, label %61, label %65

61:                                               ; preds = %47
  %62 = load ptr, ptr %9, align 8
  %63 = getelementptr inbounds %struct._zend_ssa_op, ptr %62, i32 0, i32 6
  %64 = load i32, ptr %63, align 4
  store i32 %64, ptr %8, align 4
  br label %79

65:                                               ; preds = %47
  %66 = load ptr, ptr %9, align 8
  %67 = getelementptr inbounds %struct._zend_ssa_op, ptr %66, i32 0, i32 1
  %68 = load i32, ptr %67, align 4
  %69 = load i32, ptr %10, align 4
  %70 = icmp eq i32 %68, %69
  br i1 %70, label %71, label %75

71:                                               ; preds = %65
  %72 = load ptr, ptr %9, align 8
  %73 = getelementptr inbounds %struct._zend_ssa_op, ptr %72, i32 0, i32 7
  %74 = load i32, ptr %73, align 4
  store i32 %74, ptr %8, align 4
  br label %79

75:                                               ; preds = %65
  %76 = load ptr, ptr %9, align 8
  %77 = getelementptr inbounds %struct._zend_ssa_op, ptr %76, i32 0, i32 8
  %78 = load i32, ptr %77, align 4
  store i32 %78, ptr %8, align 4
  br label %79

79:                                               ; preds = %75, %71, %61
  %80 = load i32, ptr %8, align 4
  store i32 %80, ptr %19, align 4
  %81 = load ptr, ptr %12, align 8
  %82 = getelementptr inbounds %struct._scdf_ctx, ptr %81, i32 0, i32 2
  %83 = load ptr, ptr %82, align 8
  %84 = load i32, ptr %16, align 4
  call void @zend_bitset_incl(ptr noundef %83, i32 noundef %84)
  br label %85

85:                                               ; preds = %79
  %86 = load i32, ptr %19, align 4
  store i32 %86, ptr %16, align 4
  br label %44

87:                                               ; preds = %44
  br label %88

88:                                               ; preds = %87
  br label %89

89:                                               ; preds = %88
  %90 = load ptr, ptr %15, align 8
  %91 = load ptr, ptr %14, align 8
  %92 = getelementptr inbounds %struct._zend_ssa, ptr %91, i32 0, i32 5
  %93 = load ptr, ptr %92, align 8
  %94 = ptrtoint ptr %90 to i64
  %95 = ptrtoint ptr %93 to i64
  %96 = sub i64 %94, %95
  %97 = sdiv exact i64 %96, 48
  %98 = trunc i64 %97 to i32
  store i32 %98, ptr %20, align 4
  %99 = load ptr, ptr %15, align 8
  %100 = getelementptr inbounds %struct._zend_ssa_var, ptr %99, i32 0, i32 5
  %101 = load ptr, ptr %100, align 8
  store ptr %101, ptr %17, align 8
  br label %102

102:                                              ; preds = %162, %89
  %103 = load ptr, ptr %17, align 8
  %104 = icmp ne ptr %103, null
  br i1 %104, label %105, label %164

105:                                              ; preds = %102
  %106 = load ptr, ptr %14, align 8
  %107 = load i32, ptr %20, align 4
  %108 = load ptr, ptr %17, align 8
  store ptr %106, ptr %4, align 8
  store i32 %107, ptr %5, align 4
  store ptr %108, ptr %6, align 8
  %109 = load ptr, ptr %6, align 8
  %110 = getelementptr inbounds %struct._zend_ssa_phi, ptr %109, i32 0, i32 1
  %111 = load i32, ptr %110, align 8
  %112 = icmp sge i32 %111, 0
  br i1 %112, label %113, label %118

113:                                              ; preds = %105
  %114 = load ptr, ptr %6, align 8
  %115 = getelementptr inbounds %struct._zend_ssa_phi, ptr %114, i32 0, i32 7
  %116 = load ptr, ptr %115, align 8
  %117 = load ptr, ptr %116, align 8
  store ptr %117, ptr %3, align 8
  br label %154

118:                                              ; preds = %105
  store i32 0, ptr %7, align 4
  br label %119

119:                                              ; preds = %150, %118
  %120 = load i32, ptr %7, align 4
  %121 = load ptr, ptr %4, align 8
  %122 = getelementptr inbounds %struct._zend_cfg, ptr %121, i32 0, i32 2
  %123 = load ptr, ptr %122, align 8
  %124 = load ptr, ptr %6, align 8
  %125 = getelementptr inbounds %struct._zend_ssa_phi, ptr %124, i32 0, i32 5
  %126 = load i32, ptr %125, align 8
  %127 = sext i32 %126 to i64
  %128 = getelementptr inbounds %struct._zend_basic_block, ptr %123, i64 %127
  %129 = getelementptr inbounds %struct._zend_basic_block, ptr %128, i32 0, i32 5
  %130 = load i32, ptr %129, align 8
  %131 = icmp slt i32 %120, %130
  br i1 %131, label %132, label %153

132:                                              ; preds = %119
  %133 = load ptr, ptr %6, align 8
  %134 = getelementptr inbounds %struct._zend_ssa_phi, ptr %133, i32 0, i32 9
  %135 = load ptr, ptr %134, align 8
  %136 = load i32, ptr %7, align 4
  %137 = sext i32 %136 to i64
  %138 = getelementptr inbounds i32, ptr %135, i64 %137
  %139 = load i32, ptr %138, align 4
  %140 = load i32, ptr %5, align 4
  %141 = icmp eq i32 %139, %140
  br i1 %141, label %142, label %150

142:                                              ; preds = %132
  %143 = load ptr, ptr %6, align 8
  %144 = getelementptr inbounds %struct._zend_ssa_phi, ptr %143, i32 0, i32 7
  %145 = load ptr, ptr %144, align 8
  %146 = load i32, ptr %7, align 4
  %147 = sext i32 %146 to i64
  %148 = getelementptr inbounds ptr, ptr %145, i64 %147
  %149 = load ptr, ptr %148, align 8
  store ptr %149, ptr %3, align 8
  br label %154

150:                                              ; preds = %132
  %151 = load i32, ptr %7, align 4
  %152 = add nsw i32 %151, 1
  store i32 %152, ptr %7, align 4
  br label %119

153:                                              ; preds = %119
  store ptr null, ptr %3, align 8
  br label %154

154:                                              ; preds = %153, %142, %113
  %155 = load ptr, ptr %3, align 8
  store ptr %155, ptr %21, align 8
  %156 = load ptr, ptr %12, align 8
  %157 = getelementptr inbounds %struct._scdf_ctx, ptr %156, i32 0, i32 3
  %158 = load ptr, ptr %157, align 8
  %159 = load ptr, ptr %17, align 8
  %160 = getelementptr inbounds %struct._zend_ssa_phi, ptr %159, i32 0, i32 4
  %161 = load i32, ptr %160, align 4
  call void @zend_bitset_incl(ptr noundef %158, i32 noundef %161)
  br label %162

162:                                              ; preds = %154
  %163 = load ptr, ptr %21, align 8
  store ptr %163, ptr %17, align 8
  br label %102

164:                                              ; preds = %102
  br label %165

165:                                              ; preds = %164
  ret void
}