; Function Attrs: nofree norecurse nosync nounwind memory(readwrite, inaccessiblemem: none) uwtable
define internal fastcc void @scdf_add_to_worklist(ptr nocapture noundef readonly %0, i32 noundef %1) unnamed_addr #5 {
  %3 = getelementptr inbounds i8, ptr %0, i64 8
  %4 = load ptr, ptr %3, align 8
  %5 = getelementptr inbounds i8, ptr %4, i64 64
  %6 = load ptr, ptr %5, align 8
  %7 = sext i32 %1 to i64
  %8 = getelementptr inbounds %struct._zend_ssa_var, ptr %6, i64 %7
  %9 = ptrtoint ptr %8 to i64
  %10 = getelementptr inbounds i8, ptr %8, i64 12
  %11 = load i32, ptr %10, align 4
  %12 = icmp sgt i32 %11, -1
  br i1 %12, label %.lr.ph, label %._crit_edge

.lr.ph:                                           ; preds = %2
  %13 = getelementptr inbounds i8, ptr %4, i64 56
  %14 = getelementptr inbounds i8, ptr %0, i64 16
  br label %15

15:                                               ; preds = %.lr.ph, %25
  %.04749 = phi i32 [ %11, %.lr.ph ], [ %.045, %25 ]
  %16 = load ptr, ptr %13, align 8
  %17 = zext nneg i32 %.04749 to i64
  %18 = getelementptr inbounds %struct._zend_ssa_op, ptr %16, i64 %17
  %19 = load i32, ptr %18, align 4
  %20 = icmp eq i32 %19, %1
  br i1 %20, label %25, label %21

21:                                               ; preds = %15
  %22 = getelementptr inbounds i8, ptr %18, i64 4
  %23 = load i32, ptr %22, align 4
  %24 = icmp eq i32 %23, %1
  %. = select i1 %24, i64 28, i64 32
  br label %25

25:                                               ; preds = %21, %15
  %.sink = phi i64 [ 24, %15 ], [ %., %21 ]
  %26 = getelementptr inbounds i8, ptr %18, i64 %.sink
  %.045 = load i32, ptr %26, align 4
  %27 = load ptr, ptr %14, align 8
  %28 = and i32 %.04749, 63
  %29 = zext nneg i32 %28 to i64
  %30 = shl nuw i64 1, %29
  %31 = lshr i32 %.04749, 6
  %32 = zext nneg i32 %31 to i64
  %33 = getelementptr inbounds i64, ptr %27, i64 %32
  %34 = load i64, ptr %33, align 8
  %35 = or i64 %34, %30
  store i64 %35, ptr %33, align 8
  %36 = icmp sgt i32 %.045, -1
  br i1 %36, label %15, label %._crit_edge.loopexit

._crit_edge.loopexit:                             ; preds = %25
  %.pre = load ptr, ptr %5, align 8
  br label %._crit_edge

._crit_edge:                                      ; preds = %._crit_edge.loopexit, %2
  %37 = phi ptr [ %.pre, %._crit_edge.loopexit ], [ %6, %2 ]
  %38 = ptrtoint ptr %37 to i64
  %39 = sub i64 %9, %38
  %40 = sdiv exact i64 %39, 48
  %41 = trunc i64 %40 to i32
  %42 = getelementptr inbounds i8, ptr %8, i64 24
  %43 = load ptr, ptr %42, align 8
  %.not52 = icmp eq ptr %43, null
  br i1 %.not52, label %._crit_edge56, label %.lr.ph55

.lr.ph55:                                         ; preds = %._crit_edge
  %44 = getelementptr inbounds i8, ptr %4, i64 8
  %45 = getelementptr inbounds i8, ptr %0, i64 24
  br label %46

46:                                               ; preds = %.lr.ph55, %.loopexit
  %.04653 = phi ptr [ %43, %.lr.ph55 ], [ %.0, %.loopexit ]
  %47 = getelementptr inbounds i8, ptr %.04653, i64 8
  %48 = load i32, ptr %47, align 8
  %49 = icmp sgt i32 %48, -1
  br i1 %49, label %59, label %.preheader

.preheader:                                       ; preds = %46
  %50 = load ptr, ptr %44, align 8
  %51 = getelementptr inbounds i8, ptr %.04653, i64 72
  %52 = load i32, ptr %51, align 8
  %53 = sext i32 %52 to i64
  %54 = getelementptr inbounds %struct._zend_basic_block, ptr %50, i64 %53, i32 5
  %55 = load i32, ptr %54, align 8
  %56 = icmp sgt i32 %55, 0
  br i1 %56, label %.lr.ph51, label %.loopexit

.lr.ph51:                                         ; preds = %.preheader
  %57 = getelementptr inbounds i8, ptr %.04653, i64 96
  %58 = load ptr, ptr %57, align 8
  %wide.trip.count = zext nneg i32 %55 to i64
  br label %63

59:                                               ; preds = %46
  %60 = getelementptr inbounds i8, ptr %.04653, i64 80
  %61 = load ptr, ptr %60, align 8
  br label %.loopexit.sink.split

62:                                               ; preds = %63
  %indvars.iv.next = add nuw nsw i64 %indvars.iv, 1
  %exitcond.not = icmp eq i64 %indvars.iv.next, %wide.trip.count
  br i1 %exitcond.not, label %.loopexit, label %63

63:                                               ; preds = %.lr.ph51, %62
  %indvars.iv = phi i64 [ 0, %.lr.ph51 ], [ %indvars.iv.next, %62 ]
  %64 = getelementptr inbounds i32, ptr %58, i64 %indvars.iv
  %65 = load i32, ptr %64, align 4
  %66 = icmp eq i32 %65, %41
  br i1 %66, label %67, label %62

67:                                               ; preds = %63
  %68 = getelementptr inbounds i8, ptr %.04653, i64 80
  %69 = load ptr, ptr %68, align 8
  %70 = getelementptr inbounds ptr, ptr %69, i64 %indvars.iv
  br label %.loopexit.sink.split

.loopexit.sink.split:                             ; preds = %59, %67
  %.sink60 = phi ptr [ %70, %67 ], [ %61, %59 ]
  %71 = load ptr, ptr %.sink60, align 8
  br label %.loopexit

.loopexit:                                        ; preds = %62, %.loopexit.sink.split, %.preheader
  %.0 = phi ptr [ null, %.preheader ], [ %71, %.loopexit.sink.split ], [ null, %62 ]
  %72 = load ptr, ptr %45, align 8
  %73 = getelementptr inbounds i8, ptr %.04653, i64 68
  %74 = load i32, ptr %73, align 4
  %75 = and i32 %74, 63
  %76 = zext nneg i32 %75 to i64
  %77 = shl nuw i64 1, %76
  %78 = lshr i32 %74, 6
  %79 = zext nneg i32 %78 to i64
  %80 = getelementptr inbounds i64, ptr %72, i64 %79
  %81 = load i64, ptr %80, align 8
  %82 = or i64 %77, %81
  store i64 %82, ptr %80, align 8
  %.not = icmp eq ptr %.0, null
  br i1 %.not, label %._crit_edge56, label %46

._crit_edge56:                                    ; preds = %.loopexit, %._crit_edge
  ret void
}